target datalayout = "e-m:e-p270:32:32-p271:32:32-p272:64:64-i64:64-i128:128-f80:128-n8:16:32:64-S128"
target triple = "x86_64-pc-linux-gnu"

%struct._wmem_tree_t = type { ptr, ptr, ptr, i32, i32, ptr }
%struct._wmem_tree_node_t = type { ptr, ptr, ptr, ptr, ptr, i32, i8, i8 }

; Function Attrs: nounwind null_pointer_is_valid sspstrong uwtable
define internal ptr @wmem_tree_lookup32_node(ptr noundef %0, i32 noundef %1) #4 {
  %3 = alloca ptr, align 8
  %4 = alloca ptr, align 8
  %5 = alloca i32, align 4
  %6 = alloca ptr, align 8
  %7 = alloca i32, align 4
  store ptr %0, ptr %4, align 8
  store i32 %1, ptr %5, align 4
  %8 = load ptr, ptr %4, align 8
  %9 = icmp ne ptr %8, null
  br i1 %9, label %11, label %10

10:                                               ; preds = %2
  store ptr null, ptr %3, align 8
  br label %57

11:                                               ; preds = %2
  call void @llvm.lifetime.start.p0(i64 8, ptr %6) #6
  %12 = load ptr, ptr %4, align 8
  %13 = getelementptr inbounds nuw %struct._wmem_tree_t, ptr %12, i32 0, i32 2
  %14 = load ptr, ptr %13, align 8
  store ptr %14, ptr %6, align 8
  br label %15

15:                                               ; preds = %54, %11
  %16 = load ptr, ptr %6, align 8
  %17 = icmp ne ptr %16, null
  br i1 %17, label %18, label %55

18:                                               ; preds = %15
  %19 = load i32, ptr %5, align 4
  %20 = load ptr, ptr %6, align 8
  %21 = getelementptr inbounds nuw %struct._wmem_tree_node_t, ptr %20, i32 0, i32 3
  %22 = load ptr, ptr %21, align 8
  %23 = ptrtoint ptr %22 to i64
  %24 = trunc i64 %23 to i32
  %25 = icmp eq i32 %19, %24
  br i1 %25, label %26, label %28

26:                                               ; preds = %18
  %27 = load ptr, ptr %6, align 8
  store ptr %27, ptr %3, align 8
  store i32 1, ptr %7, align 4
  br label %56

28:                                               ; preds = %18
  %29 = load i32, ptr %5, align 4
  %30 = load ptr, ptr %6, align 8
  %31 = getelementptr inbounds nuw %struct._wmem_tree_node_t, ptr %30, i32 0, i32 3
  %32 = load ptr, ptr %31, align 8
  %33 = ptrtoint ptr %32 to i64
  %34 = trunc i64 %33 to i32
  %35 = icmp ult i32 %29, %34
  br i1 %35, label %36, label %40

36:                                               ; preds = %28
  %37 = load ptr, ptr %6, align 8
  %38 = getelementptr inbounds nuw %struct._wmem_tree_node_t, ptr %37, i32 0, i32 1
  %39 = load ptr, ptr %38, align 8
  store ptr %39, ptr %6, align 8
  br label %53

40:                                               ; preds = %28
  %41 = load i32, ptr %5, align 4
  %42 = load ptr, ptr %6, align 8
  %43 = getelementptr inbounds nuw %struct._wmem_tree_node_t, ptr %42, i32 0, i32 3
  %44 = load ptr, ptr %43, align 8
  %45 = ptrtoint ptr %44 to i64
  %46 = trunc i64 %45 to i32
  %47 = icmp ugt i32 %41, %46
  br i1 %47, label %48, label %52

48:                                               ; preds = %40
  %49 = load ptr, ptr %6, align 8
  %50 = getelementptr inbounds nuw %struct._wmem_tree_node_t, ptr %49, i32 0, i32 2
  %51 = load ptr, ptr %50, align 8
  store ptr %51, ptr %6, align 8
  br label %52

52:                                               ; preds = %48, %40
  br label %53

53:                                               ; preds = %52, %36
  br label %54

54:                                               ; preds = %53
  br label %15, !llvm.loop !11

55:                                               ; preds = %15
  store ptr null, ptr %3, align 8
  store i32 1, ptr %7, align 4
  br label %56

56:                                               ; preds = %55, %26
  call void @llvm.lifetime.end.p0(i64 8, ptr %6) #6
  br label %57

57:                                               ; preds = %56, %10
  %58 = load ptr, ptr %3, align 8
  ret ptr %58
}

; Function Attrs: null_pointer_is_valid sspstrong uwtable
define ptr @wmem_tree_lookup32(ptr noundef %0, i32 noundef %1) #0 {
  %3 = alloca ptr, align 8
  %4 = alloca ptr, align 8
  %5 = alloca i32, align 4
  %6 = alloca ptr, align 8
  %7 = alloca i32, align 4
  store ptr %0, ptr %4, align 8
  store i32 %1, ptr %5, align 4
  call void @llvm.lifetime.start.p0(i64 8, ptr %6) #6
  %8 = load ptr, ptr %4, align 8
  %9 = load i32, ptr %5, align 4
  %10 = call ptr @wmem_tree_lookup32_node(ptr noundef %8, i32 noundef %9)
  store ptr %10, ptr %6, align 8
  %11 = load ptr, ptr %6, align 8
  %12 = icmp eq ptr %11, null
  br i1 %12, label %13, label %14

13:                                               ; preds = %2
  store ptr null, ptr %3, align 8
  store i32 1, ptr %7, align 4
  br label %18

14:                                               ; preds = %2
  %15 = load ptr, ptr %6, align 8
  %16 = getelementptr inbounds nuw %struct._wmem_tree_node_t, ptr %15, i32 0, i32 4
  %17 = load ptr, ptr %16, align 8
  store ptr %17, ptr %3, align 8
  store i32 1, ptr %7, align 4
  br label %18

18:                                               ; preds = %14, %13
  call void @llvm.lifetime.end.p0(i64 8, ptr %6) #6
  %19 = load ptr, ptr %3, align 8
  ret ptr %19
}