; Function Attrs: nofree norecurse nosync nounwind null_pointer_is_valid sspstrong memory(read, inaccessiblemem: none) uwtable
define ptr @wmem_tree_lookup32(ptr noundef readonly captures(address_is_null) %0, i32 noundef %1) local_unnamed_addr #6 {
  %.not.i = icmp eq ptr %0, null
  br i1 %.not.i, label %wmem_tree_lookup32_node.exit.thread, label %3

3:                                                ; preds = %2
  %4 = getelementptr inbounds nuw i8, ptr %0, i64 16
  %5 = load ptr, ptr %4, align 8
  %.not1718.i = icmp eq ptr %5, null
  br i1 %.not1718.i, label %wmem_tree_lookup32_node.exit.thread, label %.lr.ph.i

.lr.ph.i:                                         ; preds = %3, %17
  %.019.i = phi ptr [ %.1.i, %17 ], [ %5, %3 ]
  %6 = getelementptr inbounds nuw i8, ptr %.019.i, i64 24
  %7 = load ptr, ptr %6, align 8
  %8 = ptrtoint ptr %7 to i64
  %9 = trunc i64 %8 to i32
  %10 = icmp eq i32 %1, %9
  br i1 %10, label %wmem_tree_lookup32_node.exit, label %11

11:                                               ; preds = %.lr.ph.i
  %12 = icmp ult i32 %1, %9
  br i1 %12, label %.sink.split.i, label %13

13:                                               ; preds = %11
  %14 = icmp ugt i32 %1, %9
  br i1 %14, label %.sink.split.i, label %17

.sink.split.i:                                    ; preds = %13, %11
  %.sink22.i = phi i64 [ 8, %11 ], [ 16, %13 ]
  %15 = getelementptr inbounds nuw i8, ptr %.019.i, i64 %.sink22.i
  %16 = load ptr, ptr %15, align 8
  br label %17

17:                                               ; preds = %.sink.split.i, %13
  %.1.i = phi ptr [ %.019.i, %13 ], [ %16, %.sink.split.i ]
  %.not17.i = icmp eq ptr %.1.i, null
  br i1 %.not17.i, label %wmem_tree_lookup32_node.exit.thread, label %.lr.ph.i, !llvm.loop !13

wmem_tree_lookup32_node.exit:                     ; preds = %.lr.ph.i
  %18 = getelementptr inbounds nuw i8, ptr %.019.i, i64 32
  %19 = load ptr, ptr %18, align 8
  br label %wmem_tree_lookup32_node.exit.thread

wmem_tree_lookup32_node.exit.thread:              ; preds = %17, %3, %2, %wmem_tree_lookup32_node.exit
  %.0 = phi ptr [ %19, %wmem_tree_lookup32_node.exit ], [ null, %2 ], [ null, %3 ], [ null, %17 ]
  ret ptr %.0
}